; Function Attrs: mustprogress nofree norecurse nounwind willreturn memory(readwrite, inaccessiblemem: none) uwtable
define void @ff_amf_write_string2(ptr noundef captures(none) %0, ptr noundef readonly captures(address_is_null) %1, ptr noundef readonly captures(address_is_null) %2) local_unnamed_addr #1 {
  %.not = icmp eq ptr %1, null
  br i1 %.not, label %7, label %4

4:                                                ; preds = %3
  %5 = tail call i64 @strlen(ptr noundef nonnull dereferenceable(1) %1) #15
  %6 = trunc i64 %5 to i32
  br label %7

7:                                                ; preds = %4, %3
  %.013 = phi i32 [ %6, %4 ], [ 0, %3 ]
  %.not16 = icmp eq ptr %2, null
  br i1 %.not16, label %11, label %8

8:                                                ; preds = %7
  %9 = tail call i64 @strlen(ptr noundef nonnull dereferenceable(1) %2) #15
  %10 = trunc i64 %9 to i32
  br label %11

11:                                               ; preds = %8, %7
  %.0 = phi i32 [ %10, %8 ], [ 0, %7 ]
  %12 = load ptr, ptr %0, align 8, !tbaa !4
  store i8 2, ptr %12, align 1, !tbaa !9
  %13 = load ptr, ptr %0, align 8, !tbaa !4
  %14 = getelementptr inbounds nuw i8, ptr %13, i64 1
  store ptr %14, ptr %0, align 8, !tbaa !4
  %15 = add nsw i32 %.0, %.013
  %16 = trunc i32 %15 to i16
  %17 = tail call i16 @llvm.bswap.i16(i16 %16)
  store i16 %17, ptr %14, align 1, !tbaa !9
  %18 = load ptr, ptr %0, align 8, !tbaa !4
  %19 = getelementptr inbounds nuw i8, ptr %18, i64 2
  store ptr %19, ptr %0, align 8, !tbaa !4
  %20 = zext i32 %.013 to i64
  tail call void @llvm.memcpy.p0.p0.i64(ptr nonnull align 1 %19, ptr align 1 %1, i64 %20, i1 false)
  %21 = load ptr, ptr %0, align 8, !tbaa !4
  %22 = getelementptr inbounds nuw i8, ptr %21, i64 %20
  store ptr %22, ptr %0, align 8, !tbaa !4
  %23 = zext i32 %.0 to i64
  tail call void @llvm.memcpy.p0.p0.i64(ptr align 1 %22, ptr align 1 %2, i64 %23, i1 false)
  %24 = load ptr, ptr %0, align 8, !tbaa !4
  %25 = getelementptr inbounds nuw i8, ptr %24, i64 %23
  store ptr %25, ptr %0, align 8, !tbaa !4
  ret void
}